target datalayout = "e-m:e-p270:32:32-p271:32:32-p272:64:64-i64:64-i128:128-f80:128-n8:16:32:64-S128"
target triple = "x86_64-pc-linux-gnu"

%struct.slurm_conf_t = type { i64, ptr, i16, ptr, ptr, ptr, ptr, ptr, i16, ptr, ptr, ptr, ptr, ptr, ptr, ptr, i16, ptr, ptr, ptr, ptr, i16, ptr, ptr, ptr, i64, ptr, ptr, ptr, ptr, i16, ptr, ptr, i16, i32, ptr, i32, ptr, i32, i32, ptr, ptr, i64, i64, ptr, i16, i16, ptr, i32, i32, ptr, i32, ptr, i32, i16, i16, i16, ptr, i16, i16, ptr, ptr, i32, i16, i16, ptr, i32, i16, ptr, ptr, ptr, ptr, i16, ptr, ptr, ptr, ptr, i32, ptr, ptr, ptr, ptr, i16, i16, ptr, i32, i32, i32, i16, i16, ptr, ptr, i16, ptr, ptr, i32, i32, i32, i32, i32, i64, i32, i32, i16, ptr, ptr, i32, ptr, ptr, ptr, i16, i32, ptr, ptr, i16, ptr, ptr, i32, i16, ptr, ptr, ptr, ptr, i32, i32, i16, i16, i32, ptr, i16, ptr, i32, i32, i32, i32, i32, i32, ptr, i16, ptr, ptr, i32, i16, ptr, i32, i16, i16, ptr, ptr, ptr, i16, ptr, ptr, ptr, ptr, i16, i16, ptr, i16, ptr, i16, ptr, i16, ptr, i16, ptr, ptr, ptr, ptr, i16, ptr, ptr, ptr, i32, ptr, i32, ptr, ptr, i16, ptr, ptr, i32, i16, ptr, ptr, i16, i16, ptr, i16, ptr, ptr, ptr, i32, ptr, i16, i16, ptr, ptr, ptr, ptr, ptr, ptr, ptr, ptr, i16, i32, i16, ptr, ptr, ptr, ptr, i32, ptr, ptr, ptr, i16, ptr, ptr, ptr, i16, ptr, i16, ptr, i16, i16, ptr }

@slurm_conf = external global %struct.slurm_conf_t, align 8
@plugin_type = external constant [0 x i8], align 1
@.str.33 = private unnamed_addr constant [16 x i8] c"/proc/%u/status\00", align 1
@.str.34 = private unnamed_addr constant [6 x i8] c"Tgid:\00", align 1
@.str.35 = private unnamed_addr constant [38 x i8] c"%s: Tgid: string not found for pid=%u\00", align 1
@__func__._is_a_lwp = private unnamed_addr constant [10 x i8] c"_is_a_lwp\00", align 1
@.str.36 = private unnamed_addr constant [56 x i8] c"%s: %s: JAG: pid=%u != tgid=%u is a lightweight process\00", align 1
@.str.37 = private unnamed_addr constant [49 x i8] c"%s: %s: JAG: pid=%u == tgid=%u is the leader LWP\00", align 1

; Function Attrs: inlinehint nounwind willreturn memory(read) uwtable
define available_externally i32 @atoi(ptr noundef nonnull %0) #8 {
  %2 = alloca ptr, align 8
  store ptr %0, ptr %2, align 8
  %3 = load ptr, ptr %2, align 8
  %4 = call i64 @strtol(ptr noundef %3, ptr noundef null, i32 noundef 10) #10
  %5 = trunc i64 %4 to i32
  ret i32 %5
}

; Function Attrs: nounwind uwtable
define internal i32 @_is_a_lwp(i32 noundef %0) #0 {
  %2 = alloca i32, align 4
  %3 = alloca i32, align 4
  %4 = alloca ptr, align 8
  %5 = alloca [4096 x i8], align 16
  %6 = alloca i32, align 4
  %7 = alloca i32, align 4
  %8 = alloca i64, align 8
  %9 = alloca ptr, align 8
  %10 = alloca i32, align 4
  %11 = alloca i32, align 4
  store i32 %0, ptr %3, align 4
  call void @llvm.lifetime.start.p0(i64 8, ptr %4) #10
  store ptr null, ptr %4, align 8
  call void @llvm.lifetime.start.p0(i64 4096, ptr %5) #10
  call void @llvm.lifetime.start.p0(i64 4, ptr %6) #10
  call void @llvm.lifetime.start.p0(i64 4, ptr %7) #10
  store i32 1, ptr %7, align 4
  call void @llvm.lifetime.start.p0(i64 8, ptr %8) #10
  call void @llvm.lifetime.start.p0(i64 8, ptr %9) #10
  store ptr null, ptr %9, align 8
  call void @llvm.lifetime.start.p0(i64 4, ptr %10) #10
  store i32 -1, ptr %10, align 4
  %12 = load i32, ptr %3, align 4
  call void (ptr, ptr, ...) @slurm_xstrfmtcat(ptr noundef %4, ptr noundef @.str.33, i32 noundef %12)
  %13 = load ptr, ptr %4, align 8
  %14 = call i32 (ptr, i32, ...) @open(ptr noundef %13, i32 noundef 0)
  store i32 %14, ptr %6, align 4
  %15 = load i32, ptr %6, align 4
  %16 = icmp slt i32 %15, 0
  br i1 %16, label %17, label %18

17:                                               ; preds = %1
  call void @slurm_xfree(ptr noundef %4)
  store i32 -1, ptr %2, align 4
  store i32 1, ptr %11, align 4
  br label %102

18:                                               ; preds = %1
  br label %19

19:                                               ; preds = %36, %18
  %20 = load i32, ptr %6, align 4
  %21 = getelementptr inbounds [4096 x i8], ptr %5, i64 0, i64 0
  %22 = call i64 @read(i32 noundef %20, ptr noundef %21, i64 noundef 4095)
  store i64 %22, ptr %8, align 8
  %23 = load i64, ptr %8, align 8
  %24 = icmp eq i64 %23, -1
  br i1 %24, label %25, label %39

25:                                               ; preds = %19
  %26 = call ptr @__errno_location() #12
  %27 = load i32, ptr %26, align 4
  %28 = icmp eq i32 %27, 4
  br i1 %28, label %33, label %29

29:                                               ; preds = %25
  %30 = call ptr @__errno_location() #12
  %31 = load i32, ptr %30, align 4
  %32 = icmp eq i32 %31, 11
  br i1 %32, label %33, label %39

33:                                               ; preds = %29, %25
  %34 = load i32, ptr %7, align 4
  %35 = icmp slt i32 %34, 100
  br i1 %35, label %36, label %39

36:                                               ; preds = %33
  %37 = load i32, ptr %7, align 4
  %38 = add nsw i32 %37, 1
  store i32 %38, ptr %7, align 4
  br label %19

39:                                               ; preds = %33, %29, %19
  %40 = load i64, ptr %8, align 8
  %41 = icmp sle i64 %40, 0
  br i1 %41, label %42, label %45

42:                                               ; preds = %39
  %43 = load i32, ptr %6, align 4
  %44 = call i32 @close(i32 noundef %43)
  call void @slurm_xfree(ptr noundef %4)
  store i32 -1, ptr %2, align 4
  store i32 1, ptr %11, align 4
  br label %102

45:                                               ; preds = %39
  %46 = load i64, ptr %8, align 8
  %47 = getelementptr inbounds [4096 x i8], ptr %5, i64 0, i64 %46
  store i8 0, ptr %47, align 1
  %48 = load i32, ptr %6, align 4
  %49 = call i32 @close(i32 noundef %48)
  call void @slurm_xfree(ptr noundef %4)
  %50 = getelementptr inbounds [4096 x i8], ptr %5, i64 0, i64 0
  %51 = call ptr @slurm_xstrstr(ptr noundef %50, ptr noundef @.str.34)
  store ptr %51, ptr %9, align 8
  %52 = load ptr, ptr %9, align 8
  %53 = icmp ne ptr %52, null
  br i1 %53, label %54, label %59

54:                                               ; preds = %45
  %55 = load ptr, ptr %9, align 8
  %56 = getelementptr inbounds i8, ptr %55, i64 5
  store ptr %56, ptr %9, align 8
  %57 = load ptr, ptr %9, align 8
  %58 = call i32 @atoi(ptr noundef %57) #13
  store i32 %58, ptr %10, align 4
  br label %62

59:                                               ; preds = %45
  %60 = load i32, ptr %3, align 4
  %61 = call i32 (ptr, ...) @slurm_error(ptr noundef @.str.35, ptr noundef @__func__._is_a_lwp, i32 noundef %60)
  br label %62

62:                                               ; preds = %59, %54
  %63 = load i32, ptr %3, align 4
  %64 = load i32, ptr %10, align 4
  %65 = icmp ne i32 %63, %64
  br i1 %65, label %66, label %84

66:                                               ; preds = %62
  br label %67

67:                                               ; preds = %66
  %68 = load i64, ptr getelementptr inbounds nuw (%struct.slurm_conf_t, ptr @slurm_conf, i32 0, i32 42), align 8
  %69 = and i64 %68, 18014398509481984
  %70 = icmp ne i64 %69, 0
  br i1 %70, label %71, label %81

71:                                               ; preds = %67
  br label %72

72:                                               ; preds = %71
  %73 = call i32 @slurm_get_log_level()
  %74 = icmp sge i32 %73, 4
  br i1 %74, label %75, label %78

75:                                               ; preds = %72
  %76 = load i32, ptr %3, align 4
  %77 = load i32, ptr %10, align 4
  call void (i32, ptr, ...) @slurm_log_var(i32 noundef 4, ptr noundef @.str.36, ptr noundef @plugin_type, ptr noundef @__func__._is_a_lwp, i32 noundef %76, i32 noundef %77)
  br label %78

78:                                               ; preds = %75, %72
  br label %79

79:                                               ; preds = %78
  br label %80

80:                                               ; preds = %79
  br label %81

81:                                               ; preds = %80, %67
  br label %82

82:                                               ; preds = %81
  br label %83

83:                                               ; preds = %82
  store i32 1, ptr %2, align 4
  store i32 1, ptr %11, align 4
  br label %102

84:                                               ; preds = %62
  br label %85

85:                                               ; preds = %84
  %86 = load i64, ptr getelementptr inbounds nuw (%struct.slurm_conf_t, ptr @slurm_conf, i32 0, i32 42), align 8
  %87 = and i64 %86, 18014398509481984
  %88 = icmp ne i64 %87, 0
  br i1 %88, label %89, label %99

89:                                               ; preds = %85
  br label %90

90:                                               ; preds = %89
  %91 = call i32 @slurm_get_log_level()
  %92 = icmp sge i32 %91, 4
  br i1 %92, label %93, label %96

93:                                               ; preds = %90
  %94 = load i32, ptr %3, align 4
  %95 = load i32, ptr %10, align 4
  call void (i32, ptr, ...) @slurm_log_var(i32 noundef 4, ptr noundef @.str.37, ptr noundef @plugin_type, ptr noundef @__func__._is_a_lwp, i32 noundef %94, i32 noundef %95)
  br label %96

96:                                               ; preds = %93, %90
  br label %97

97:                                               ; preds = %96
  br label %98

98:                                               ; preds = %97
  br label %99

99:                                               ; preds = %98, %85
  br label %100

100:                                              ; preds = %99
  br label %101

101:                                              ; preds = %100
  store i32 0, ptr %2, align 4
  store i32 1, ptr %11, align 4
  br label %102

102:                                              ; preds = %101, %83, %42, %17
  call void @llvm.lifetime.end.p0(i64 4, ptr %10) #10
  call void @llvm.lifetime.end.p0(i64 8, ptr %9) #10
  call void @llvm.lifetime.end.p0(i64 8, ptr %8) #10
  call void @llvm.lifetime.end.p0(i64 4, ptr %7) #10
  call void @llvm.lifetime.end.p0(i64 4, ptr %6) #10
  call void @llvm.lifetime.end.p0(i64 4096, ptr %5) #10
  call void @llvm.lifetime.end.p0(i64 8, ptr %4) #10
  %103 = load i32, ptr %2, align 4
  ret i32 %103
}