; Function Attrs: nounwind uwtable
define internal fastcc range(i32 -1, 2) i32 @_is_a_lwp(i32 noundef %0) unnamed_addr #0 {
  %2 = alloca ptr, align 8
  %3 = alloca [4096 x i8], align 16
  call void @llvm.lifetime.start.p0(i64 8, ptr nonnull %2) #17
  store ptr null, ptr %2, align 8
  call void @llvm.lifetime.start.p0(i64 4096, ptr nonnull %3) #17
  call void (ptr, ptr, ...) @slurm_xstrfmtcat(ptr noundef nonnull %2, ptr noundef nonnull @.str.33, i32 noundef %0) #17
  %4 = load ptr, ptr %2, align 8
  %5 = call i32 (ptr, i32, ...) @open(ptr noundef %4, i32 noundef 0) #17
  %6 = icmp slt i32 %5, 0
  br i1 %6, label %10, label %.preheader

.preheader:                                       ; preds = %1
  %7 = call i64 @read(i32 noundef %5, ptr noundef nonnull %3, i64 noundef 4095) #17
  %8 = icmp eq i64 %7, -1
  br i1 %8, label %.lr.ph, label %._crit_edge

.lr.ph:                                           ; preds = %.preheader
  %9 = tail call ptr @__errno_location() #19
  br label %11

10:                                               ; preds = %1
  call void @slurm_xfree(ptr noundef nonnull %2) #17
  br label %47

11:                                               ; preds = %.lr.ph, %18
  %.02332 = phi i32 [ 1, %.lr.ph ], [ %19, %18 ]
  %12 = load i32, ptr %9, align 4
  %13 = icmp eq i32 %12, 4
  br i1 %13, label %17, label %14

14:                                               ; preds = %11
  %15 = icmp eq i32 %12, 11
  %16 = icmp samesign ult i32 %.02332, 100
  %or.cond = select i1 %15, i1 %16, i1 false
  br i1 %or.cond, label %18, label %.thread

17:                                               ; preds = %11
  %.old1 = icmp samesign ult i32 %.02332, 100
  br i1 %.old1, label %18, label %.thread

18:                                               ; preds = %14, %17
  %19 = add nuw nsw i32 %.02332, 1
  %20 = call i64 @read(i32 noundef %5, ptr noundef nonnull %3, i64 noundef 4095) #17
  %21 = icmp eq i64 %20, -1
  br i1 %21, label %11, label %._crit_edge

._crit_edge:                                      ; preds = %18, %.preheader
  %.lcssa = phi i64 [ %7, %.preheader ], [ %20, %18 ]
  %22 = icmp slt i64 %.lcssa, 1
  br i1 %22, label %.thread, label %24

.thread:                                          ; preds = %14, %17, %._crit_edge
  %23 = call i32 @close(i32 noundef %5) #17
  call void @slurm_xfree(ptr noundef nonnull %2) #17
  br label %47

24:                                               ; preds = %._crit_edge
  %25 = getelementptr inbounds nuw [4096 x i8], ptr %3, i64 0, i64 %.lcssa
  store i8 0, ptr %25, align 1
  %26 = call i32 @close(i32 noundef %5) #17
  call void @slurm_xfree(ptr noundef nonnull %2) #17
  %27 = call ptr @slurm_xstrstr(ptr noundef nonnull %3, ptr noundef nonnull @.str.34) #17
  %.not = icmp eq ptr %27, null
  br i1 %.not, label %32, label %28

28:                                               ; preds = %24
  %29 = getelementptr inbounds nuw i8, ptr %27, i64 5
  %30 = call i64 @strtol(ptr noundef nonnull captures(none) %29, ptr noundef null, i32 noundef 10) #17
  %31 = trunc i64 %30 to i32
  br label %34

32:                                               ; preds = %24
  %33 = call i32 (ptr, ...) @slurm_error(ptr noundef nonnull @.str.35, ptr noundef nonnull @__func__._is_a_lwp, i32 noundef %0) #17
  br label %34

34:                                               ; preds = %32, %28
  %.0 = phi i32 [ %31, %28 ], [ -1, %32 ]
  %.not28 = icmp eq i32 %0, %.0
  %35 = load i64, ptr getelementptr inbounds nuw (i8, ptr @slurm_conf, i64 320), align 8
  %36 = and i64 %35, 18014398509481984
  %.not29 = icmp eq i64 %36, 0
  br i1 %.not28, label %42, label %37

37:                                               ; preds = %34
  br i1 %.not29, label %47, label %38

38:                                               ; preds = %37
  %39 = call i32 @slurm_get_log_level() #17
  %40 = icmp sgt i32 %39, 3
  br i1 %40, label %41, label %47

41:                                               ; preds = %38
  call void (i32, ptr, ...) @slurm_log_var(i32 noundef 4, ptr noundef nonnull @.str.36, ptr noundef nonnull @plugin_type, ptr noundef nonnull @__func__._is_a_lwp, i32 noundef %0, i32 noundef %.0) #17
  br label %47

42:                                               ; preds = %34
  br i1 %.not29, label %47, label %43

43:                                               ; preds = %42
  %44 = call i32 @slurm_get_log_level() #17
  %45 = icmp sgt i32 %44, 3
  br i1 %45, label %46, label %47

46:                                               ; preds = %43
  call void (i32, ptr, ...) @slurm_log_var(i32 noundef 4, ptr noundef nonnull @.str.37, ptr noundef nonnull @plugin_type, ptr noundef nonnull @__func__._is_a_lwp, i32 noundef %0, i32 noundef %0) #17
  br label %47

47:                                               ; preds = %42, %46, %43, %37, %41, %38, %.thread, %10
  %.022 = phi i32 [ -1, %10 ], [ -1, %.thread ], [ 1, %38 ], [ 1, %41 ], [ 1, %37 ], [ 0, %43 ], [ 0, %46 ], [ 0, %42 ]
  call void @llvm.lifetime.end.p0(i64 4096, ptr nonnull %3) #17
  call void @llvm.lifetime.end.p0(i64 8, ptr nonnull %2) #17
  ret i32 %.022
}